; Function Attrs: nofree norecurse nosync nounwind memory(read, argmem: readwrite, inaccessiblemem: none) uwtable
define dso_local range(i32 -1, -2147483648) i32 @fdt_next_subnode(ptr noundef captures(address) %0, i32 noundef %1) local_unnamed_addr #3 {
  %3 = alloca i32, align 4
  %4 = getelementptr inbounds nuw i8, ptr %0, i64 8
  %5 = getelementptr inbounds nuw i8, ptr %0, i64 9
  %6 = getelementptr inbounds nuw i8, ptr %0, i64 10
  %7 = getelementptr inbounds nuw i8, ptr %0, i64 11
  %8 = getelementptr inbounds nuw i8, ptr %0, i64 4
  %9 = getelementptr inbounds nuw i8, ptr %0, i64 5
  %10 = getelementptr inbounds nuw i8, ptr %0, i64 6
  %11 = getelementptr inbounds nuw i8, ptr %0, i64 7
  %12 = getelementptr inbounds nuw i8, ptr %0, i64 20
  %13 = getelementptr inbounds nuw i8, ptr %0, i64 21
  %14 = getelementptr inbounds nuw i8, ptr %0, i64 22
  %15 = getelementptr inbounds nuw i8, ptr %0, i64 23
  %.not.i.old = icmp eq ptr %0, null
  %16 = getelementptr inbounds nuw i8, ptr %0, i64 36
  %17 = getelementptr inbounds nuw i8, ptr %0, i64 37
  %18 = getelementptr inbounds nuw i8, ptr %0, i64 38
  %19 = getelementptr inbounds nuw i8, ptr %0, i64 39
  br label %20

20:                                               ; preds = %161, %2
  %.019 = phi i32 [ 1, %2 ], [ %162, %161 ]
  %.0 = phi i32 [ %1, %2 ], [ %74, %161 ]
  %21 = icmp sgt i32 %.0, -1
  br i1 %21, label %22, label %28

22:                                               ; preds = %20
  call void @llvm.lifetime.start.p0(i64 4, ptr nonnull %3)
  %23 = and i32 %.0, 3
  %or.cond.i.i = icmp eq i32 %23, 0
  br i1 %or.cond.i.i, label %24, label %fdt_check_node_offset_.exit.thread.i

24:                                               ; preds = %22
  %25 = call i32 @fdt_next_tag(ptr noundef %0, i32 noundef %.0, ptr noundef nonnull %3)
  %.not2.i.i = icmp eq i32 %25, 1
  br i1 %.not2.i.i, label %fdt_check_node_offset_.exit.i, label %fdt_check_node_offset_.exit.thread.i

fdt_check_node_offset_.exit.thread.i:             ; preds = %24, %22
  call void @llvm.lifetime.end.p0(i64 4, ptr nonnull %3)
  br label %fdt_next_node.exit.thread

fdt_check_node_offset_.exit.i:                    ; preds = %24
  %26 = load i32, ptr %3, align 4
  call void @llvm.lifetime.end.p0(i64 4, ptr nonnull %3)
  %27 = icmp slt i32 %26, 0
  br i1 %27, label %fdt_next_node.exit.thread, label %28

28:                                               ; preds = %fdt_check_node_offset_.exit.i, %20
  %29 = phi i32 [ %26, %fdt_check_node_offset_.exit.i ], [ 0, %20 ]
  %30 = load i8, ptr %4, align 1
  %31 = zext i8 %30 to i32
  %32 = shl nuw i32 %31, 24
  %33 = load i8, ptr %5, align 1
  %34 = zext i8 %33 to i32
  %35 = shl nuw nsw i32 %34, 16
  %36 = or disjoint i32 %35, %32
  %37 = load i8, ptr %6, align 1
  %38 = zext i8 %37 to i32
  %39 = shl nuw nsw i32 %38, 8
  %40 = or disjoint i32 %36, %39
  %41 = load i8, ptr %7, align 1
  %42 = zext i8 %41 to i32
  %43 = or disjoint i32 %40, %42
  %44 = add i32 %43, %29
  %45 = icmp ult i32 %44, %29
  %46 = icmp ugt i32 %44, -5
  %or.cond42 = or i1 %45, %46
  br i1 %or.cond42, label %fdt_next_node.exit.thread, label %.lr.ph

.lr.ph:                                           ; preds = %28
  %47 = load i8, ptr %8, align 1
  %48 = zext i8 %47 to i32
  %49 = shl nuw i32 %48, 24
  %50 = load i8, ptr %9, align 1
  %51 = zext i8 %50 to i32
  %52 = shl nuw nsw i32 %51, 16
  %53 = or disjoint i32 %52, %49
  %54 = load i8, ptr %10, align 1
  %55 = zext i8 %54 to i32
  %56 = shl nuw nsw i32 %55, 8
  %57 = or disjoint i32 %53, %56
  %58 = load i8, ptr %11, align 1
  %59 = zext i8 %58 to i32
  %60 = or disjoint i32 %57, %59
  %61 = zext i8 %33 to i64
  %62 = shl nuw nsw i64 %61, 16
  %63 = zext i8 %30 to i64
  %64 = shl nuw nsw i64 %63, 24
  %65 = or disjoint i64 %62, %64
  %66 = zext i8 %37 to i64
  %67 = shl nuw nsw i64 %66, 8
  %68 = or disjoint i64 %65, %67
  %69 = zext i8 %41 to i64
  %70 = or disjoint i64 %68, %69
  %71 = getelementptr inbounds nuw i8, ptr %0, i64 %70
  br label %72

72:                                               ; preds = %.lr.ph, %.backedge.i
  %73 = phi i32 [ %44, %.lr.ph ], [ %153, %.backedge.i ]
  %74 = phi i32 [ %29, %.lr.ph ], [ %152, %.backedge.i ]
  %.143 = phi i32 [ %.019, %.lr.ph ], [ %.2, %.backedge.i ]
  %75 = add nuw i32 %73, 4
  %76 = icmp ugt i32 %75, %60
  br i1 %76, label %fdt_next_node.exit.thread, label %77

77:                                               ; preds = %72
  %78 = load i8, ptr %12, align 1
  %79 = zext i8 %78 to i32
  %80 = shl nuw i32 %79, 24
  %81 = load i8, ptr %13, align 1
  %82 = zext i8 %81 to i32
  %83 = shl nuw nsw i32 %82, 16
  %84 = or disjoint i32 %83, %80
  %85 = load i8, ptr %14, align 1
  %86 = zext i8 %85 to i32
  %87 = shl nuw nsw i32 %86, 8
  %88 = or disjoint i32 %84, %87
  %89 = load i8, ptr %15, align 1
  %90 = zext i8 %89 to i32
  %91 = or disjoint i32 %88, %90
  %92 = icmp ugt i32 %91, 16
  %93 = add i32 %74, 4
  br i1 %92, label %94, label %fdt_offset_ptr.exit13._crit_edge

94:                                               ; preds = %77
  %95 = load i8, ptr %16, align 1
  %96 = zext i8 %95 to i32
  %97 = shl nuw i32 %96, 24
  %98 = load i8, ptr %17, align 1
  %99 = zext i8 %98 to i32
  %100 = shl nuw nsw i32 %99, 16
  %101 = or disjoint i32 %100, %97
  %102 = load i8, ptr %18, align 1
  %103 = zext i8 %102 to i32
  %104 = shl nuw nsw i32 %103, 8
  %105 = or disjoint i32 %101, %104
  %106 = load i8, ptr %19, align 1
  %107 = zext i8 %106 to i32
  %108 = or disjoint i32 %105, %107
  %109 = icmp ugt i32 %93, %108
  %or.cond33 = or i1 %.not.i.old, %109
  br i1 %or.cond33, label %fdt_next_node.exit.thread, label %fdt_offset_ptr.exit13._crit_edge

fdt_offset_ptr.exit13._crit_edge:                 ; preds = %77, %94
  %110 = zext nneg i32 %74 to i64
  %111 = getelementptr inbounds nuw i8, ptr %71, i64 %110
  %112 = load i32, ptr %111, align 4
  %rev.i.i = tail call noundef i32 @llvm.bswap.i32(i32 %112)
  switch i32 %rev.i.i, label %fdt_next_node.exit.thread [
    i32 1, label %.preheader.i.preheader
    i32 3, label %137
    i32 9, label %.critedge.i
    i32 2, label %.critedge.i
    i32 4, label %.critedge.i
  ]

.preheader.i.preheader:                           ; preds = %fdt_offset_ptr.exit13._crit_edge
  %113 = zext i32 %93 to i64
  br label %.preheader.i

.preheader.i:                                     ; preds = %.preheader.i.preheader, %fdt_offset_ptr.exit
  %indvars.iv = phi i64 [ %113, %.preheader.i.preheader ], [ %indvars.iv.next, %fdt_offset_ptr.exit ]
  %114 = trunc nuw i64 %indvars.iv to i32
  %115 = add i32 %43, %114
  %116 = icmp sgt i32 %114, -1
  %117 = zext i32 %115 to i64
  %118 = icmp samesign ule i64 %indvars.iv, %117
  %or.cond.i9.not70 = and i1 %116, %118
  %.not58 = icmp ult i32 %115, %60
  %or.cond65 = and i1 %or.cond.i9.not70, %.not58
  br i1 %or.cond65, label %119, label %fdt_next_node.exit.thread

119:                                              ; preds = %.preheader.i
  br i1 %92, label %120, label %fdt_offset_ptr.exit

120:                                              ; preds = %119
  %121 = load i8, ptr %16, align 1
  %122 = zext i8 %121 to i64
  %123 = shl nuw nsw i64 %122, 24
  %124 = load i8, ptr %17, align 1
  %125 = zext i8 %124 to i64
  %126 = shl nuw nsw i64 %125, 16
  %127 = or disjoint i64 %126, %123
  %128 = load i8, ptr %18, align 1
  %129 = zext i8 %128 to i64
  %130 = shl nuw nsw i64 %129, 8
  %131 = or disjoint i64 %127, %130
  %132 = load i8, ptr %19, align 1
  %133 = zext i8 %132 to i64
  %134 = or disjoint i64 %131, %133
  %.not = icmp samesign ult i64 %indvars.iv, %134
  br i1 %.not, label %fdt_offset_ptr.exit, label %fdt_next_node.exit.thread

fdt_offset_ptr.exit:                              ; preds = %120, %119
  %135 = getelementptr inbounds nuw i8, ptr %71, i64 %indvars.iv
  %indvars.iv.next = add nuw nsw i64 %indvars.iv, 1
  %136 = load i8, ptr %135, align 1
  %.not40.i = icmp eq i8 %136, 0
  br i1 %.not40.i, label %.critedge.i.loopexit, label %.preheader.i, !llvm.loop !4

137:                                              ; preds = %fdt_offset_ptr.exit13._crit_edge
  %138 = tail call ptr @fdt_offset_ptr(ptr noundef nonnull readonly %0, i32 noundef %93, i32 noundef 4)
  %.not38.i = icmp eq ptr %138, null
  br i1 %.not38.i, label %fdt_next_node.exit.thread, label %139

139:                                              ; preds = %137
  %140 = load i32, ptr %138, align 4
  %rev.i44.i = tail call noundef i32 @llvm.bswap.i32(i32 %140)
  %141 = add nuw i32 %74, 12
  %142 = add i32 %rev.i44.i, %141
  %143 = icmp ult i32 %91, 16
  %144 = icmp ugt i32 %rev.i44.i, 7
  %or.cond.i = and i1 %144, %143
  br i1 %or.cond.i, label %145, label %.critedge.i

145:                                              ; preds = %139
  %146 = and i32 %141, 7
  %.not39.i = icmp eq i32 %146, 0
  %147 = add i32 %142, 4
  %spec.select.i = select i1 %.not39.i, i32 %142, i32 %147
  br label %.critedge.i

.critedge.i.loopexit:                             ; preds = %fdt_offset_ptr.exit
  %148 = trunc nuw i64 %indvars.iv.next to i32
  br label %.critedge.i

.critedge.i:                                      ; preds = %.critedge.i.loopexit, %145, %139, %fdt_offset_ptr.exit13._crit_edge, %fdt_offset_ptr.exit13._crit_edge, %fdt_offset_ptr.exit13._crit_edge
  %.1.i = phi i32 [ %93, %fdt_offset_ptr.exit13._crit_edge ], [ %93, %fdt_offset_ptr.exit13._crit_edge ], [ %93, %fdt_offset_ptr.exit13._crit_edge ], [ %142, %139 ], [ %spec.select.i, %145 ], [ %148, %.critedge.i.loopexit ]
  %149 = sub i32 %.1.i, %74
  %150 = tail call ptr @fdt_offset_ptr(ptr noundef nonnull readonly %0, i32 noundef %74, i32 noundef %149)
  %.not42.i = icmp eq ptr %150, null
  br i1 %.not42.i, label %fdt_next_node.exit.thread, label %fdt_next_tag.exit

fdt_next_tag.exit:                                ; preds = %.critedge.i
  %151 = add i32 %.1.i, 3
  %152 = and i32 %151, -4
  switch i32 %rev.i.i, label %.backedge.i [
    i32 9, label %fdt_next_node.exit.thread
    i32 2, label %157
    i32 1, label %fdt_next_node.exit
  ]

.backedge.i:                                      ; preds = %157, %fdt_next_tag.exit
  %.2 = phi i32 [ %.143, %fdt_next_tag.exit ], [ %158, %157 ]
  %153 = add i32 %43, %152
  %154 = icmp slt i32 %151, 0
  %155 = icmp ult i32 %153, %152
  %or.cond.i11 = or i1 %154, %155
  %156 = icmp ugt i32 %153, -5
  %or.cond = or i1 %or.cond.i11, %156
  br i1 %or.cond, label %fdt_next_node.exit.thread, label %72, !llvm.loop !6

157:                                              ; preds = %fdt_next_tag.exit
  %158 = add i32 %.143, -1
  %159 = icmp slt i32 %158, 0
  br i1 %159, label %fdt_next_node.exit.thread, label %.backedge.i

fdt_next_node.exit:                               ; preds = %fdt_next_tag.exit
  %160 = icmp ugt i32 %.143, 2147483646
  br i1 %160, label %fdt_next_node.exit.thread, label %161

161:                                              ; preds = %fdt_next_node.exit
  %162 = add nuw nsw i32 %.143, 1
  %.not49 = icmp eq i32 %.143, 0
  br i1 %.not49, label %fdt_next_node.exit.thread, label %20, !llvm.loop !7

fdt_next_node.exit.thread:                        ; preds = %fdt_check_node_offset_.exit.i, %161, %fdt_next_node.exit, %28, %157, %94, %72, %.backedge.i, %.critedge.i, %fdt_offset_ptr.exit13._crit_edge, %137, %fdt_next_tag.exit, %.preheader.i, %120, %fdt_check_node_offset_.exit.thread.i
  %.05 = phi i32 [ -1, %fdt_check_node_offset_.exit.thread.i ], [ -1, %120 ], [ -1, %.preheader.i ], [ -1, %fdt_next_tag.exit ], [ -1, %137 ], [ -1, %fdt_offset_ptr.exit13._crit_edge ], [ -1, %.critedge.i ], [ -1, %.backedge.i ], [ -1, %72 ], [ -1, %94 ], [ -1, %157 ], [ -1, %28 ], [ -1, %fdt_check_node_offset_.exit.i ], [ %74, %161 ], [ -1, %fdt_next_node.exit ]
  ret i32 %.05
}